target datalayout = "e-m:e-p270:32:32-p271:32:32-p272:64:64-i64:64-i128:128-f80:128-n8:16:32:64-S128"
target triple = "x86_64-pc-linux-gnu"

%struct.node_record = type { ptr, ptr, i16, i64, i64, ptr, ptr, ptr, i16, ptr, i16, i16, i32, i32, i64, ptr, i16, i16, ptr, ptr, ptr, ptr, ptr, i64, i64, ptr, ptr, ptr, ptr, i32, ptr, ptr, i64, i64, i32, ptr, i64, ptr, i32, i16, ptr, ptr, i32, ptr, i32, i8, ptr, i32, i16, i16, ptr, i16, i64, i16, i64, ptr, i64, i32, i16, i64, i16, ptr, i16, i64, ptr, i64, i16, i32, i16, ptr, ptr, ptr, i16, i32, i16, i16, i32, ptr, i16, i32 }

@avail_node_bitmap = dso_local global ptr null, align 8
@bf_ignore_node_bitmap = dso_local global ptr null, align 8
@booting_node_bitmap = dso_local global ptr null, align 8
@cg_node_bitmap = dso_local global ptr null, align 8
@cloud_node_bitmap = dso_local global ptr null, align 8
@future_node_bitmap = dso_local global ptr null, align 8
@idle_node_bitmap = dso_local global ptr null, align 8
@power_down_node_bitmap = dso_local global ptr null, align 8
@rs_node_bitmap = dso_local global ptr null, align 8
@share_node_bitmap = dso_local global ptr null, align 8
@up_node_bitmap = dso_local global ptr null, align 8
@power_up_node_bitmap = dso_local global ptr null, align 8
@node_record_count = external global i32, align 4
@active_feature_list = external global ptr, align 8
@avail_feature_list = external global ptr, align 8
@.str.164 = private unnamed_addr constant [36 x i8] c"Can't delete non-dynamic node '%s'.\00", align 1
@.str.165 = private unnamed_addr constant [53 x i8] c"Node '%s' can't be delete because it's still in use.\00", align 1
@.str.166 = private unnamed_addr constant [57 x i8] c"Node '%s' can't be delete because it's in a reservation.\00", align 1
@node_hash_table = external global ptr, align 8

; Function Attrs: nounwind uwtable
define internal void @_remove_node_from_features(ptr noundef %0) #0 {
  %2 = alloca ptr, align 8
  %3 = alloca ptr, align 8
  store ptr %0, ptr %2, align 8
  call void @llvm.lifetime.start.p0(i64 8, ptr %3) #10
  %4 = load i32, ptr @node_record_count, align 4
  %5 = sext i32 %4 to i64
  %6 = call ptr @bit_alloc(i64 noundef %5)
  store ptr %6, ptr %3, align 8
  %7 = load ptr, ptr %3, align 8
  %8 = load ptr, ptr %2, align 8
  %9 = getelementptr inbounds nuw %struct.node_record, ptr %8, i32 0, i32 29
  %10 = load i32, ptr %9, align 8
  %11 = zext i32 %10 to i64
  call void @bit_set(ptr noundef %7, i64 noundef %11)
  %12 = load ptr, ptr @avail_feature_list, align 8
  %13 = load ptr, ptr %3, align 8
  call void @update_feature_list(ptr noundef %12, ptr noundef null, ptr noundef %13)
  %14 = load ptr, ptr @active_feature_list, align 8
  %15 = load ptr, ptr %3, align 8
  call void @update_feature_list(ptr noundef %14, ptr noundef null, ptr noundef %15)
  br label %16

16:                                               ; preds = %1
  %17 = load ptr, ptr %3, align 8
  %18 = icmp ne ptr %17, null
  br i1 %18, label %19, label %20

19:                                               ; preds = %16
  call void @slurm_bit_free(ptr noundef %3)
  br label %20

20:                                               ; preds = %19, %16
  store ptr null, ptr %3, align 8
  br label %21

21:                                               ; preds = %20
  br label %22

22:                                               ; preds = %21
  call void @llvm.lifetime.end.p0(i64 8, ptr %3) #10
  ret void
}

; Function Attrs: nounwind uwtable
define internal void @_remove_node_from_all_bitmaps(ptr noundef %0) #0 {
  %2 = alloca ptr, align 8
  store ptr %0, ptr %2, align 8
  %3 = load ptr, ptr @avail_node_bitmap, align 8
  %4 = load ptr, ptr %2, align 8
  %5 = getelementptr inbounds nuw %struct.node_record, ptr %4, i32 0, i32 29
  %6 = load i32, ptr %5, align 8
  %7 = zext i32 %6 to i64
  call void @bit_clear(ptr noundef %3, i64 noundef %7)
  %8 = load ptr, ptr @bf_ignore_node_bitmap, align 8
  %9 = load ptr, ptr %2, align 8
  %10 = getelementptr inbounds nuw %struct.node_record, ptr %9, i32 0, i32 29
  %11 = load i32, ptr %10, align 8
  %12 = zext i32 %11 to i64
  call void @bit_clear(ptr noundef %8, i64 noundef %12)
  %13 = load ptr, ptr @booting_node_bitmap, align 8
  %14 = load ptr, ptr %2, align 8
  %15 = getelementptr inbounds nuw %struct.node_record, ptr %14, i32 0, i32 29
  %16 = load i32, ptr %15, align 8
  %17 = zext i32 %16 to i64
  call void @bit_clear(ptr noundef %13, i64 noundef %17)
  %18 = load ptr, ptr @cg_node_bitmap, align 8
  %19 = load ptr, ptr %2, align 8
  %20 = getelementptr inbounds nuw %struct.node_record, ptr %19, i32 0, i32 29
  %21 = load i32, ptr %20, align 8
  %22 = zext i32 %21 to i64
  call void @bit_clear(ptr noundef %18, i64 noundef %22)
  %23 = load ptr, ptr @cloud_node_bitmap, align 8
  %24 = load ptr, ptr %2, align 8
  %25 = getelementptr inbounds nuw %struct.node_record, ptr %24, i32 0, i32 29
  %26 = load i32, ptr %25, align 8
  %27 = zext i32 %26 to i64
  call void @bit_clear(ptr noundef %23, i64 noundef %27)
  %28 = load ptr, ptr @future_node_bitmap, align 8
  %29 = load ptr, ptr %2, align 8
  %30 = getelementptr inbounds nuw %struct.node_record, ptr %29, i32 0, i32 29
  %31 = load i32, ptr %30, align 8
  %32 = zext i32 %31 to i64
  call void @bit_clear(ptr noundef %28, i64 noundef %32)
  %33 = load ptr, ptr @idle_node_bitmap, align 8
  %34 = load ptr, ptr %2, align 8
  %35 = getelementptr inbounds nuw %struct.node_record, ptr %34, i32 0, i32 29
  %36 = load i32, ptr %35, align 8
  %37 = zext i32 %36 to i64
  call void @bit_clear(ptr noundef %33, i64 noundef %37)
  %38 = load ptr, ptr @power_down_node_bitmap, align 8
  %39 = load ptr, ptr %2, align 8
  %40 = getelementptr inbounds nuw %struct.node_record, ptr %39, i32 0, i32 29
  %41 = load i32, ptr %40, align 8
  %42 = zext i32 %41 to i64
  call void @bit_clear(ptr noundef %38, i64 noundef %42)
  %43 = load ptr, ptr @power_up_node_bitmap, align 8
  %44 = load ptr, ptr %2, align 8
  %45 = getelementptr inbounds nuw %struct.node_record, ptr %44, i32 0, i32 29
  %46 = load i32, ptr %45, align 8
  %47 = zext i32 %46 to i64
  call void @bit_clear(ptr noundef %43, i64 noundef %47)
  %48 = load ptr, ptr @rs_node_bitmap, align 8
  %49 = load ptr, ptr %2, align 8
  %50 = getelementptr inbounds nuw %struct.node_record, ptr %49, i32 0, i32 29
  %51 = load i32, ptr %50, align 8
  %52 = zext i32 %51 to i64
  call void @bit_clear(ptr noundef %48, i64 noundef %52)
  %53 = load ptr, ptr @share_node_bitmap, align 8
  %54 = load ptr, ptr %2, align 8
  %55 = getelementptr inbounds nuw %struct.node_record, ptr %54, i32 0, i32 29
  %56 = load i32, ptr %55, align 8
  %57 = zext i32 %56 to i64
  call void @bit_clear(ptr noundef %53, i64 noundef %57)
  %58 = load ptr, ptr @up_node_bitmap, align 8
  %59 = load ptr, ptr %2, align 8
  %60 = getelementptr inbounds nuw %struct.node_record, ptr %59, i32 0, i32 29
  %61 = load i32, ptr %60, align 8
  %62 = zext i32 %61 to i64
  call void @bit_clear(ptr noundef %58, i64 noundef %62)
  ret void
}

; Function Attrs: nounwind uwtable
define internal i32 @_delete_node_ptr(ptr noundef %0) #0 {
  %2 = alloca i32, align 4
  %3 = alloca ptr, align 8
  store ptr %0, ptr %3, align 8
  %4 = load ptr, ptr %3, align 8
  %5 = getelementptr inbounds nuw %struct.node_record, ptr %4, i32 0, i32 44
  %6 = load i32, ptr %5, align 8
  %7 = zext i32 %6 to i64
  %8 = and i64 %7, 67108864
  %9 = icmp ne i64 %8, 0
  br i1 %9, label %15, label %10

10:                                               ; preds = %1
  %11 = load ptr, ptr %3, align 8
  %12 = getelementptr inbounds nuw %struct.node_record, ptr %11, i32 0, i32 37
  %13 = load ptr, ptr %12, align 8
  %14 = call i32 (ptr, ...) @error(ptr noundef @.str.164, ptr noundef %13)
  store i32 2028, ptr %2, align 4
  br label %58

15:                                               ; preds = %1
  %16 = load ptr, ptr %3, align 8
  %17 = getelementptr inbounds nuw %struct.node_record, ptr %16, i32 0, i32 44
  %18 = load i32, ptr %17, align 8
  %19 = and i32 %18, 15
  %20 = icmp eq i32 %19, 3
  br i1 %20, label %28, label %21

21:                                               ; preds = %15
  %22 = load ptr, ptr %3, align 8
  %23 = getelementptr inbounds nuw %struct.node_record, ptr %22, i32 0, i32 44
  %24 = load i32, ptr %23, align 8
  %25 = zext i32 %24 to i64
  %26 = and i64 %25, 1024
  %27 = icmp ne i64 %26, 0
  br i1 %27, label %28, label %33

28:                                               ; preds = %21, %15
  %29 = load ptr, ptr %3, align 8
  %30 = getelementptr inbounds nuw %struct.node_record, ptr %29, i32 0, i32 37
  %31 = load ptr, ptr %30, align 8
  %32 = call i32 (ptr, ...) @error(ptr noundef @.str.165, ptr noundef %31)
  store i32 2016, ptr %2, align 4
  br label %58

33:                                               ; preds = %21
  %34 = load ptr, ptr %3, align 8
  %35 = getelementptr inbounds nuw %struct.node_record, ptr %34, i32 0, i32 44
  %36 = load i32, ptr %35, align 8
  %37 = zext i32 %36 to i64
  %38 = and i64 %37, 32
  %39 = icmp ne i64 %38, 0
  br i1 %39, label %40, label %45

40:                                               ; preds = %33
  %41 = load ptr, ptr %3, align 8
  %42 = getelementptr inbounds nuw %struct.node_record, ptr %41, i32 0, i32 37
  %43 = load ptr, ptr %42, align 8
  %44 = call i32 (ptr, ...) @error(ptr noundef @.str.166, ptr noundef %43)
  store i32 2016, ptr %2, align 4
  br label %58

45:                                               ; preds = %33
  %46 = load ptr, ptr %3, align 8
  call void @_remove_node_from_all_bitmaps(ptr noundef %46)
  %47 = load ptr, ptr %3, align 8
  call void @_remove_node_from_features(ptr noundef %47)
  %48 = load ptr, ptr %3, align 8
  call void @gres_node_remove(ptr noundef %48)
  %49 = load ptr, ptr @node_hash_table, align 8
  %50 = load ptr, ptr %3, align 8
  %51 = getelementptr inbounds nuw %struct.node_record, ptr %50, i32 0, i32 37
  %52 = load ptr, ptr %51, align 8
  %53 = call ptr @xhash_pop_str(ptr noundef %49, ptr noundef %52)
  %54 = load ptr, ptr %3, align 8
  %55 = getelementptr inbounds nuw %struct.node_record, ptr %54, i32 0, i32 37
  %56 = load ptr, ptr %55, align 8
  call void @slurm_conf_remove_node(ptr noundef %56)
  %57 = load ptr, ptr %3, align 8
  call void @delete_node_record(ptr noundef %57)
  store i32 0, ptr %2, align 4
  br label %58

58:                                               ; preds = %45, %40, %28, %10
  %59 = load i32, ptr %2, align 4
  ret i32 %59
}