; Function Attrs: nounwind uwtable
define internal fastcc range(i32 0, 2029) i32 @_delete_node_ptr(ptr noundef nonnull %0) unnamed_addr #0 {
  %2 = alloca ptr, align 8
  %3 = getelementptr inbounds nuw i8, ptr %0, i64 320
  %4 = load i32, ptr %3, align 8
  %5 = zext i32 %4 to i64
  %6 = and i64 %5, 67108864
  %.not = icmp eq i64 %6, 0
  br i1 %.not, label %7, label %11

7:                                                ; preds = %1
  %8 = getelementptr inbounds nuw i8, ptr %0, i64 272
  %9 = load ptr, ptr %8, align 8
  %10 = tail call i32 (ptr, ...) @error(ptr noundef nonnull @.str.164, ptr noundef %9) #15
  br label %76

11:                                               ; preds = %1
  %12 = and i32 %4, 15
  %13 = icmp ne i32 %12, 3
  %14 = and i64 %5, 1024
  %.not13 = icmp eq i64 %14, 0
  %or.cond = and i1 %13, %.not13
  br i1 %or.cond, label %19, label %15

15:                                               ; preds = %11
  %16 = getelementptr inbounds nuw i8, ptr %0, i64 272
  %17 = load ptr, ptr %16, align 8
  %18 = tail call i32 (ptr, ...) @error(ptr noundef nonnull @.str.165, ptr noundef %17) #15
  br label %76

19:                                               ; preds = %11
  %20 = and i64 %5, 32
  %.not14 = icmp eq i64 %20, 0
  br i1 %.not14, label %25, label %21

21:                                               ; preds = %19
  %22 = getelementptr inbounds nuw i8, ptr %0, i64 272
  %23 = load ptr, ptr %22, align 8
  %24 = tail call i32 (ptr, ...) @error(ptr noundef nonnull @.str.166, ptr noundef %23) #15
  br label %76

25:                                               ; preds = %19
  %26 = load ptr, ptr @avail_node_bitmap, align 8
  %27 = getelementptr inbounds nuw i8, ptr %0, i64 208
  %28 = load i32, ptr %27, align 8
  %29 = zext i32 %28 to i64
  tail call void @bit_clear(ptr noundef %26, i64 noundef %29) #15
  %30 = load ptr, ptr @bf_ignore_node_bitmap, align 8
  %31 = load i32, ptr %27, align 8
  %32 = zext i32 %31 to i64
  tail call void @bit_clear(ptr noundef %30, i64 noundef %32) #15
  %33 = load ptr, ptr @booting_node_bitmap, align 8
  %34 = load i32, ptr %27, align 8
  %35 = zext i32 %34 to i64
  tail call void @bit_clear(ptr noundef %33, i64 noundef %35) #15
  %36 = load ptr, ptr @cg_node_bitmap, align 8
  %37 = load i32, ptr %27, align 8
  %38 = zext i32 %37 to i64
  tail call void @bit_clear(ptr noundef %36, i64 noundef %38) #15
  %39 = load ptr, ptr @cloud_node_bitmap, align 8
  %40 = load i32, ptr %27, align 8
  %41 = zext i32 %40 to i64
  tail call void @bit_clear(ptr noundef %39, i64 noundef %41) #15
  %42 = load ptr, ptr @future_node_bitmap, align 8
  %43 = load i32, ptr %27, align 8
  %44 = zext i32 %43 to i64
  tail call void @bit_clear(ptr noundef %42, i64 noundef %44) #15
  %45 = load ptr, ptr @idle_node_bitmap, align 8
  %46 = load i32, ptr %27, align 8
  %47 = zext i32 %46 to i64
  tail call void @bit_clear(ptr noundef %45, i64 noundef %47) #15
  %48 = load ptr, ptr @power_down_node_bitmap, align 8
  %49 = load i32, ptr %27, align 8
  %50 = zext i32 %49 to i64
  tail call void @bit_clear(ptr noundef %48, i64 noundef %50) #15
  %51 = load ptr, ptr @power_up_node_bitmap, align 8
  %52 = load i32, ptr %27, align 8
  %53 = zext i32 %52 to i64
  tail call void @bit_clear(ptr noundef %51, i64 noundef %53) #15
  %54 = load ptr, ptr @rs_node_bitmap, align 8
  %55 = load i32, ptr %27, align 8
  %56 = zext i32 %55 to i64
  tail call void @bit_clear(ptr noundef %54, i64 noundef %56) #15
  %57 = load ptr, ptr @share_node_bitmap, align 8
  %58 = load i32, ptr %27, align 8
  %59 = zext i32 %58 to i64
  tail call void @bit_clear(ptr noundef %57, i64 noundef %59) #15
  %60 = load ptr, ptr @up_node_bitmap, align 8
  %61 = load i32, ptr %27, align 8
  %62 = zext i32 %61 to i64
  tail call void @bit_clear(ptr noundef %60, i64 noundef %62) #15
  call void @llvm.lifetime.start.p0(i64 8, ptr nonnull %2) #15
  %63 = load i32, ptr @node_record_count, align 4
  %64 = sext i32 %63 to i64
  %65 = tail call ptr @bit_alloc(i64 noundef %64) #15
  store ptr %65, ptr %2, align 8
  %66 = load i32, ptr %27, align 8
  %67 = zext i32 %66 to i64
  tail call void @bit_set(ptr noundef %65, i64 noundef %67) #15
  %68 = load ptr, ptr @avail_feature_list, align 8
  tail call void @update_feature_list(ptr noundef %68, ptr noundef null, ptr noundef %65) #15
  %69 = load ptr, ptr @active_feature_list, align 8
  tail call void @update_feature_list(ptr noundef %69, ptr noundef null, ptr noundef %65) #15
  %.not.i = icmp eq ptr %65, null
  br i1 %.not.i, label %_remove_node_from_features.exit, label %70

70:                                               ; preds = %25
  call void @slurm_bit_free(ptr noundef nonnull %2) #15
  br label %_remove_node_from_features.exit

_remove_node_from_features.exit:                  ; preds = %25, %70
  call void @llvm.lifetime.end.p0(i64 8, ptr nonnull %2) #15
  call void @gres_node_remove(ptr noundef nonnull %0) #15
  %71 = load ptr, ptr @node_hash_table, align 8
  %72 = getelementptr inbounds nuw i8, ptr %0, i64 272
  %73 = load ptr, ptr %72, align 8
  %74 = call ptr @xhash_pop_str(ptr noundef %71, ptr noundef %73) #15
  %75 = load ptr, ptr %72, align 8
  call void @slurm_conf_remove_node(ptr noundef %75) #15
  call void @delete_node_record(ptr noundef nonnull %0) #15
  br label %76

76:                                               ; preds = %_remove_node_from_features.exit, %21, %15, %7
  %.0 = phi i32 [ 2016, %15 ], [ 2016, %21 ], [ 0, %_remove_node_from_features.exit ], [ 2028, %7 ]
  ret i32 %.0
}